; ModuleID = '35/81.c'
source_filename = "35/81.c"
target datalayout = "e-m:e-p270:32:32-p271:32:32-p272:64:64-i64:64-f80:128-n8:16:32:64-S128"
target triple = "x86_64-pc-linux-gnu"

@.str = private unnamed_addr constant [6 x i8] c"%d,%d\00", align 1
@.str.1 = private unnamed_addr constant [3 x i8] c"%d\00", align 1
@.str.2 = private unnamed_addr constant [7 x i8] c"%d+%d\0A\00", align 1
@.str.3 = private unnamed_addr constant [4 x i8] c"No\0A\00", align 1

; Function Attrs: noinline nounwind uwtable
define dso_local void @main() #0 {
  %1 = alloca i32, align 4
  %2 = alloca i32, align 4
  %3 = alloca [8 x [8 x i32]], align 16
  %4 = alloca i32, align 4
  %5 = alloca i32, align 4
  %6 = alloca [1 x [8 x i32]], align 16
  %7 = alloca [8 x i32], align 16
  %8 = alloca i32, align 4
  %9 = alloca [8 x i32], align 16
  %10 = alloca i32, align 4
  store i32 0, i32* %8, align 4
  store i32 0, i32* %10, align 4
  %11 = call i32 (i8*, ...) @__isoc99_scanf(i8* getelementptr inbounds ([6 x i8], [6 x i8]* @.str, i64 0, i64 0), i32* %1, i32* %2)
  store i32 0, i32* %4, align 4
  br label %12

12:                                               ; preds = %21, %0
  %13 = load i32, i32* %4, align 4
  %14 = load i32, i32* %1, align 4
  %15 = sub nsw i32 %14, 1
  %16 = icmp sle i32 %13, %15
  br i1 %16, label %17, label %24

17:                                               ; preds = %12
  %18 = load i32, i32* %4, align 4
  %19 = sext i32 %18 to i64
  %20 = getelementptr inbounds [8 x i32], [8 x i32]* %7, i64 0, i64 %19
  store i32 0, i32* %20, align 4
  br label %21

21:                                               ; preds = %17
  %22 = load i32, i32* %4, align 4
  %23 = add nsw i32 %22, 1
  store i32 %23, i32* %4, align 4
  br label %12

24:                                               ; preds = %12
  store i32 0, i32* %4, align 4
  br label %25

25:                                               ; preds = %48, %24
  %26 = load i32, i32* %4, align 4
  %27 = load i32, i32* %1, align 4
  %28 = sub nsw i32 %27, 1
  %29 = icmp sle i32 %26, %28
  br i1 %29, label %30, label %51

30:                                               ; preds = %25
  store i32 0, i32* %5, align 4
  br label %31

31:                                               ; preds = %44, %30
  %32 = load i32, i32* %5, align 4
  %33 = load i32, i32* %2, align 4
  %34 = sub nsw i32 %33, 1
  %35 = icmp sle i32 %32, %34
  br i1 %35, label %36, label %47

36:                                               ; preds = %31
  %37 = load i32, i32* %4, align 4
  %38 = sext i32 %37 to i64
  %39 = getelementptr inbounds [8 x [8 x i32]], [8 x [8 x i32]]* %3, i64 0, i64 %38
  %40 = load i32, i32* %5, align 4
  %41 = sext i32 %40 to i64
  %42 = getelementptr inbounds [8 x i32], [8 x i32]* %39, i64 0, i64 %41
  %43 = call i32 (i8*, ...) @__isoc99_scanf(i8* getelementptr inbounds ([3 x i8], [3 x i8]* @.str.1, i64 0, i64 0), i32* %42)
  br label %44

44:                                               ; preds = %36
  %45 = load i32, i32* %5, align 4
  %46 = add nsw i32 %45, 1
  store i32 %46, i32* %5, align 4
  br label %31

47:                                               ; preds = %31
  br label %48

48:                                               ; preds = %47
  %49 = load i32, i32* %4, align 4
  %50 = add nsw i32 %49, 1
  store i32 %50, i32* %4, align 4
  br label %25

51:                                               ; preds = %25
  store i32 0, i32* %4, align 4
  br label %52

52:                                               ; preds = %110, %51
  %53 = load i32, i32* %4, align 4
  %54 = load i32, i32* %1, align 4
  %55 = sub nsw i32 %54, 1
  %56 = icmp sle i32 %53, %55
  br i1 %56, label %57, label %113

57:                                               ; preds = %52
  %58 = load i32, i32* %4, align 4
  %59 = sext i32 %58 to i64
  %60 = getelementptr inbounds [8 x [8 x i32]], [8 x [8 x i32]]* %3, i64 0, i64 %59
  %61 = getelementptr inbounds [8 x i32], [8 x i32]* %60, i64 0, i64 0
  %62 = load i32, i32* %61, align 16
  %63 = getelementptr inbounds [1 x [8 x i32]], [1 x [8 x i32]]* %6, i64 0, i64 0
  %64 = load i32, i32* %4, align 4
  %65 = sext i32 %64 to i64
  %66 = getelementptr inbounds [8 x i32], [8 x i32]* %63, i64 0, i64 %65
  store i32 %62, i32* %66, align 4
  %67 = load i32, i32* %4, align 4
  %68 = sext i32 %67 to i64
  %69 = getelementptr inbounds [8 x i32], [8 x i32]* %9, i64 0, i64 %68
  store i32 0, i32* %69, align 4
  store i32 1, i32* %5, align 4
  br label %70

70:                                               ; preds = %106, %57
  %71 = load i32, i32* %5, align 4
  %72 = load i32, i32* %2, align 4
  %73 = sub nsw i32 %72, 1
  %74 = icmp sle i32 %71, %73
  br i1 %74, label %75, label %109

75:                                               ; preds = %70
  %76 = load i32, i32* %4, align 4
  %77 = sext i32 %76 to i64
  %78 = getelementptr inbounds [8 x [8 x i32]], [8 x [8 x i32]]* %3, i64 0, i64 %77
  %79 = load i32, i32* %5, align 4
  %80 = sext i32 %79 to i64
  %81 = getelementptr inbounds [8 x i32], [8 x i32]* %78, i64 0, i64 %80
  %82 = load i32, i32* %81, align 4
  %83 = getelementptr inbounds [1 x [8 x i32]], [1 x [8 x i32]]* %6, i64 0, i64 0
  %84 = load i32, i32* %4, align 4
  %85 = sext i32 %84 to i64
  %86 = getelementptr inbounds [8 x i32], [8 x i32]* %83, i64 0, i64 %85
  %87 = load i32, i32* %86, align 4
  %88 = icmp sgt i32 %82, %87
  br i1 %88, label %89, label %105

89:                                               ; preds = %75
  %90 = load i32, i32* %4, align 4
  %91 = sext i32 %90 to i64
  %92 = getelementptr inbounds [8 x [8 x i32]], [8 x [8 x i32]]* %3, i64 0, i64 %91
  %93 = load i32, i32* %5, align 4
  %94 = sext i32 %93 to i64
  %95 = getelementptr inbounds [8 x i32], [8 x i32]* %92, i64 0, i64 %94
  %96 = load i32, i32* %95, align 4
  %97 = getelementptr inbounds [1 x [8 x i32]], [1 x [8 x i32]]* %6, i64 0, i64 0
  %98 = load i32, i32* %4, align 4
  %99 = sext i32 %98 to i64
  %100 = getelementptr inbounds [8 x i32], [8 x i32]* %97, i64 0, i64 %99
  store i32 %96, i32* %100, align 4
  %101 = load i32, i32* %5, align 4
  %102 = load i32, i32* %4, align 4
  %103 = sext i32 %102 to i64
  %104 = getelementptr inbounds [8 x i32], [8 x i32]* %9, i64 0, i64 %103
  store i32 %101, i32* %104, align 4
  br label %105

105:                                              ; preds = %89, %75
  br label %106

106:                                              ; preds = %105
  %107 = load i32, i32* %5, align 4
  %108 = add nsw i32 %107, 1
  store i32 %108, i32* %5, align 4
  br label %70

109:                                              ; preds = %70
  br label %110

110:                                              ; preds = %109
  %111 = load i32, i32* %4, align 4
  %112 = add nsw i32 %111, 1
  store i32 %112, i32* %4, align 4
  br label %52

113:                                              ; preds = %52
  store i32 0, i32* %5, align 4
  br label %114

114:                                              ; preds = %170, %113
  %115 = load i32, i32* %5, align 4
  %116 = load i32, i32* %1, align 4
  %117 = sub nsw i32 %116, 1
  %118 = icmp sle i32 %115, %117
  br i1 %118, label %119, label %173

119:                                              ; preds = %114
  store i32 0, i32* %4, align 4
  br label %120

120:                                              ; preds = %152, %119
  %121 = load i32, i32* %4, align 4
  %122 = load i32, i32* %1, align 4
  %123 = sub nsw i32 %122, 1
  %124 = icmp sle i32 %121, %123
  br i1 %124, label %125, label %155

125:                                              ; preds = %120
  %126 = getelementptr inbounds [1 x [8 x i32]], [1 x [8 x i32]]* %6, i64 0, i64 0
  %127 = load i32, i32* %5, align 4
  %128 = sext i32 %127 to i64
  %129 = getelementptr inbounds [8 x i32], [8 x i32]* %126, i64 0, i64 %128
  %130 = load i32, i32* %129, align 4
  %131 = load i32, i32* %4, align 4
  %132 = sext i32 %131 to i64
  %133 = getelementptr inbounds [8 x [8 x i32]], [8 x [8 x i32]]* %3, i64 0, i64 %132
  %134 = load i32, i32* %5, align 4
  %135 = sext i32 %134 to i64
  %136 = getelementptr inbounds [8 x i32], [8 x i32]* %9, i64 0, i64 %135
  %137 = load i32, i32* %136, align 4
  %138 = sext i32 %137 to i64
  %139 = getelementptr inbounds [8 x i32], [8 x i32]* %133, i64 0, i64 %138
  %140 = load i32, i32* %139, align 4
  %141 = icmp sle i32 %130, %140
  br i1 %141, label %142, label %151

142:                                              ; preds = %125
  %143 = load i32, i32* %5, align 4
  %144 = sext i32 %143 to i64
  %145 = getelementptr inbounds [8 x i32], [8 x i32]* %7, i64 0, i64 %144
  %146 = load i32, i32* %145, align 4
  %147 = add nsw i32 %146, 1
  %148 = load i32, i32* %5, align 4
  %149 = sext i32 %148 to i64
  %150 = getelementptr inbounds [8 x i32], [8 x i32]* %7, i64 0, i64 %149
  store i32 %147, i32* %150, align 4
  br label %151

151:                                              ; preds = %142, %125
  br label %152

152:                                              ; preds = %151
  %153 = load i32, i32* %4, align 4
  %154 = add nsw i32 %153, 1
  store i32 %154, i32* %4, align 4
  br label %120

155:                                              ; preds = %120
  %156 = load i32, i32* %5, align 4
  %157 = sext i32 %156 to i64
  %158 = getelementptr inbounds [8 x i32], [8 x i32]* %7, i64 0, i64 %157
  %159 = load i32, i32* %158, align 4
  %160 = load i32, i32* %1, align 4
  %161 = icmp eq i32 %159, %160
  br i1 %161, label %162, label %169

162:                                              ; preds = %155
  %163 = load i32, i32* %5, align 4
  %164 = load i32, i32* %5, align 4
  %165 = sext i32 %164 to i64
  %166 = getelementptr inbounds [8 x i32], [8 x i32]* %9, i64 0, i64 %165
  %167 = load i32, i32* %166, align 4
  %168 = call i32 (i8*, ...) @printf(i8* getelementptr inbounds ([7 x i8], [7 x i8]* @.str.2, i64 0, i64 0), i32 %163, i32 %167)
  store i32 1, i32* %10, align 4
  br label %169

169:                                              ; preds = %162, %155
  br label %170

170:                                              ; preds = %169
  %171 = load i32, i32* %5, align 4
  %172 = add nsw i32 %171, 1
  store i32 %172, i32* %5, align 4
  br label %114

173:                                              ; preds = %114
  %174 = load i32, i32* %10, align 4
  %175 = icmp ne i32 %174, 0
  br i1 %175, label %178, label %176

176:                                              ; preds = %173
  %177 = call i32 (i8*, ...) @printf(i8* getelementptr inbounds ([4 x i8], [4 x i8]* @.str.3, i64 0, i64 0))
  br label %178

178:                                              ; preds = %176, %173
  ret void
}

declare dso_local i32 @__isoc99_scanf(i8*, ...) #1

declare dso_local i32 @printf(i8*, ...) #1


!llvm.module.flags = !{!0}
!llvm.ident = !{!1}

!0 = !{i32 1, !"wchar_size", i32 4}
!1 = !{!"clang version 10.0.0-4ubuntu1 "}
